target datalayout = "e-m:e-p270:32:32-p271:32:32-p272:64:64-i64:64-i128:128-f80:128-n8:16:32:64-S128"
target triple = "x86_64-pc-linux-gnu"

%struct.FT_FaceRec_ = type { i64, i64, i64, i64, i64, ptr, ptr, i32, ptr, i32, ptr, %struct.FT_Generic_, %struct.FT_BBox_, i16, i16, i16, i16, i16, i16, i16, i16, ptr, ptr, ptr, ptr, ptr, ptr, %struct.FT_ListRec_, %struct.FT_Generic_, ptr, ptr }
%struct.FT_BBox_ = type { i64, i64, i64, i64 }
%struct.FT_ListRec_ = type { ptr, ptr }
%struct.FT_Generic_ = type { ptr, ptr }
%struct.FT_CharMapRec_ = type { ptr, i32, i16, i16 }

; Function Attrs: nounwind uwtable
define i32 @FT_Get_Charmap_Index(ptr noundef %0) #0 {
  %2 = alloca i32, align 4
  %3 = alloca ptr, align 8
  %4 = alloca i32, align 4
  %5 = alloca i32, align 4
  store ptr %0, ptr %3, align 8, !tbaa !447
  call void @llvm.lifetime.start.p0(i64 4, ptr %4) #10
  %6 = load ptr, ptr %3, align 8, !tbaa !447
  %7 = icmp ne ptr %6, null
  br i1 %7, label %8, label %13

8:                                                ; preds = %1
  %9 = load ptr, ptr %3, align 8, !tbaa !447
  %10 = getelementptr inbounds nuw %struct.FT_CharMapRec_, ptr %9, i32 0, i32 0
  %11 = load ptr, ptr %10, align 8, !tbaa !455
  %12 = icmp ne ptr %11, null
  br i1 %12, label %14, label %13

13:                                               ; preds = %8, %1
  store i32 -1, ptr %2, align 4
  store i32 1, ptr %5, align 4
  br label %45

14:                                               ; preds = %8
  store i32 0, ptr %4, align 4, !tbaa !8
  br label %15

15:                                               ; preds = %37, %14
  %16 = load i32, ptr %4, align 4, !tbaa !8
  %17 = load ptr, ptr %3, align 8, !tbaa !447
  %18 = getelementptr inbounds nuw %struct.FT_CharMapRec_, ptr %17, i32 0, i32 0
  %19 = load ptr, ptr %18, align 8, !tbaa !455
  %20 = getelementptr inbounds nuw %struct.FT_FaceRec_, ptr %19, i32 0, i32 9
  %21 = load i32, ptr %20, align 8, !tbaa !444
  %22 = icmp slt i32 %16, %21
  br i1 %22, label %23, label %40

23:                                               ; preds = %15
  %24 = load ptr, ptr %3, align 8, !tbaa !447
  %25 = getelementptr inbounds nuw %struct.FT_CharMapRec_, ptr %24, i32 0, i32 0
  %26 = load ptr, ptr %25, align 8, !tbaa !455
  %27 = getelementptr inbounds nuw %struct.FT_FaceRec_, ptr %26, i32 0, i32 10
  %28 = load ptr, ptr %27, align 8, !tbaa !445
  %29 = load i32, ptr %4, align 4, !tbaa !8
  %30 = sext i32 %29 to i64
  %31 = getelementptr inbounds ptr, ptr %28, i64 %30
  %32 = load ptr, ptr %31, align 8, !tbaa !447
  %33 = load ptr, ptr %3, align 8, !tbaa !447
  %34 = icmp eq ptr %32, %33
  br i1 %34, label %35, label %36

35:                                               ; preds = %23
  br label %40

36:                                               ; preds = %23
  br label %37

37:                                               ; preds = %36
  %38 = load i32, ptr %4, align 4, !tbaa !8
  %39 = add nsw i32 %38, 1
  store i32 %39, ptr %4, align 4, !tbaa !8
  br label %15, !llvm.loop !462

40:                                               ; preds = %35, %15
  br label %41

41:                                               ; preds = %40
  br label %42

42:                                               ; preds = %41
  br label %43

43:                                               ; preds = %42
  %44 = load i32, ptr %4, align 4, !tbaa !8
  store i32 %44, ptr %2, align 4
  store i32 1, ptr %5, align 4
  br label %45

45:                                               ; preds = %43, %13
  call void @llvm.lifetime.end.p0(i64 4, ptr %4) #10
  %46 = load i32, ptr %2, align 4
  ret i32 %46
}