; Function Attrs: nofree norecurse nosync nounwind memory(read, inaccessiblemem: none) uwtable
define i32 @FT_Get_Charmap_Index(ptr noundef readonly %0) local_unnamed_addr #21 {
  %.not = icmp eq ptr %0, null
  br i1 %.not, label %.loopexit, label %2

2:                                                ; preds = %1
  %3 = load ptr, ptr %0, align 8, !tbaa !385
  %.not11 = icmp eq ptr %3, null
  br i1 %.not11, label %.loopexit, label %.preheader

.preheader:                                       ; preds = %2
  %4 = getelementptr inbounds nuw i8, ptr %3, i64 72
  %5 = load i32, ptr %4, align 8, !tbaa !336
  %6 = icmp sgt i32 %5, 0
  br i1 %6, label %.lr.ph, label %.loopexit

.lr.ph:                                           ; preds = %.preheader
  %7 = getelementptr inbounds nuw i8, ptr %3, i64 80
  %8 = load ptr, ptr %7, align 8, !tbaa !337
  %wide.trip.count = zext nneg i32 %5 to i64
  br label %9

9:                                                ; preds = %.lr.ph, %13
  %indvars.iv = phi i64 [ 0, %.lr.ph ], [ %indvars.iv.next, %13 ]
  %10 = getelementptr inbounds nuw ptr, ptr %8, i64 %indvars.iv
  %11 = load ptr, ptr %10, align 8, !tbaa !338
  %12 = icmp eq ptr %11, %0
  br i1 %12, label %.loopexit.loopexit.split.loop.exit, label %13

13:                                               ; preds = %9
  %indvars.iv.next = add nuw nsw i64 %indvars.iv, 1
  %exitcond.not = icmp eq i64 %indvars.iv.next, %wide.trip.count
  br i1 %exitcond.not, label %.loopexit, label %9, !llvm.loop !391

.loopexit.loopexit.split.loop.exit:               ; preds = %9
  %14 = trunc nuw nsw i64 %indvars.iv to i32
  br label %.loopexit

.loopexit:                                        ; preds = %13, %.loopexit.loopexit.split.loop.exit, %.preheader, %1, %2
  %.09 = phi i32 [ -1, %2 ], [ -1, %1 ], [ 0, %.preheader ], [ %14, %.loopexit.loopexit.split.loop.exit ], [ %5, %13 ]
  ret i32 %.09
}